; Function Attrs: nounwind uwtable
define range(i32 -22, 23) i32 @av_color_primaries_from_name(ptr noundef %0) local_unnamed_addr #4 {
  br label %2

2:                                                ; preds = %1, %9
  %indvars.iv = phi i64 [ 0, %1 ], [ %indvars.iv.next, %9 ]
  %3 = trunc i64 %indvars.iv to i32
  %4 = add i32 %3, -13
  %.not = icmp ult i32 %4, 9
  br i1 %.not, label %9, label %5

5:                                                ; preds = %2
  %6 = getelementptr inbounds nuw [23 x ptr], ptr @color_primaries_names, i64 0, i64 %indvars.iv
  %7 = load ptr, ptr %6, align 8, !tbaa !13
  %8 = tail call i32 @av_strstart(ptr noundef %0, ptr noundef %7, ptr noundef null) #15
  %.not9 = icmp eq i32 %8, 0
  br i1 %.not9, label %9, label %.split.loop.exit12

9:                                                ; preds = %5, %2
  %indvars.iv.next = add nuw nsw i64 %indvars.iv, 1
  %exitcond.not = icmp eq i64 %indvars.iv.next, 23
  br i1 %exitcond.not, label %.split.loop.exit, label %2, !llvm.loop !43

.split.loop.exit12:                               ; preds = %5
  %10 = trunc nuw nsw i64 %indvars.iv to i32
  br label %.split.loop.exit

.split.loop.exit:                                 ; preds = %9, %.split.loop.exit12
  %.06 = phi i32 [ %10, %.split.loop.exit12 ], [ -22, %9 ]
  ret i32 %.06
}